; ModuleID = '38/1103.c'
source_filename = "38/1103.c"
target datalayout = "e-m:e-p270:32:32-p271:32:32-p272:64:64-i64:64-f80:128-n8:16:32:64-S128"
target triple = "x86_64-pc-linux-gnu"

@.str = private unnamed_addr constant [3 x i8] c"%d\00", align 1
@.str.1 = private unnamed_addr constant [4 x i8] c"%lf\00", align 1
@.str.2 = private unnamed_addr constant [7 x i8] c"%.5lf\0A\00", align 1

; Function Attrs: noinline nounwind uwtable
define dso_local i32 @main(i32 %0, i8** %1) #0 {
  %3 = alloca i32, align 4
  %4 = alloca i32, align 4
  %5 = alloca i8**, align 8
  %6 = alloca i32, align 4
  %7 = alloca i32, align 4
  %8 = alloca i32, align 4
  %9 = alloca i32, align 4
  %10 = alloca double, align 8
  %11 = alloca double, align 8
  %12 = alloca double, align 8
  %13 = alloca double, align 8
  %14 = alloca double, align 8
  %15 = alloca [100 x i32], align 16
  %16 = alloca [100 x double], align 16
  %17 = alloca [100 x [100 x double]], align 16
  %18 = alloca [100 x double], align 16
  %19 = alloca [100 x i32], align 16
  store i32 0, i32* %3, align 4
  store i32 %0, i32* %4, align 4
  store i8** %1, i8*** %5, align 8
  store double 0.000000e+00, double* %14, align 8
  %20 = bitcast [100 x i32]* %15 to i8*
  call void @llvm.memset.p0i8.i64(i8* align 16 %20, i8 0, i64 400, i1 false)
  %21 = bitcast [100 x double]* %16 to i8*
  call void @llvm.memset.p0i8.i64(i8* align 16 %21, i8 0, i64 800, i1 false)
  %22 = call i32 (i8*, ...) @__isoc99_scanf(i8* getelementptr inbounds ([3 x i8], [3 x i8]* @.str, i64 0, i64 0), i32* %6)
  store i32 0, i32* %8, align 4
  br label %23

23:                                               ; preds = %72, %2
  %24 = load i32, i32* %8, align 4
  %25 = load i32, i32* %6, align 4
  %26 = icmp slt i32 %24, %25
  br i1 %26, label %27, label %75

27:                                               ; preds = %23
  %28 = call i32 (i8*, ...) @__isoc99_scanf(i8* getelementptr inbounds ([3 x i8], [3 x i8]* @.str, i64 0, i64 0), i32* %7)
  %29 = load i32, i32* %7, align 4
  %30 = load i32, i32* %8, align 4
  %31 = sext i32 %30 to i64
  %32 = getelementptr inbounds [100 x i32], [100 x i32]* %19, i64 0, i64 %31
  store i32 %29, i32* %32, align 4
  store i32 0, i32* %9, align 4
  br label %33

33:                                               ; preds = %68, %27
  %34 = load i32, i32* %9, align 4
  %35 = load i32, i32* %7, align 4
  %36 = icmp slt i32 %34, %35
  br i1 %36, label %37, label %71

37:                                               ; preds = %33
  %38 = load i32, i32* %8, align 4
  %39 = sext i32 %38 to i64
  %40 = getelementptr inbounds [100 x [100 x double]], [100 x [100 x double]]* %17, i64 0, i64 %39
  %41 = load i32, i32* %9, align 4
  %42 = sext i32 %41 to i64
  %43 = getelementptr inbounds [100 x double], [100 x double]* %40, i64 0, i64 %42
  %44 = call i32 (i8*, ...) @__isoc99_scanf(i8* getelementptr inbounds ([4 x i8], [4 x i8]* @.str.1, i64 0, i64 0), double* %43)
  %45 = load i32, i32* %8, align 4
  %46 = sext i32 %45 to i64
  %47 = getelementptr inbounds [100 x double], [100 x double]* %16, i64 0, i64 %46
  %48 = load double, double* %47, align 8
  %49 = load i32, i32* %8, align 4
  %50 = sext i32 %49 to i64
  %51 = getelementptr inbounds [100 x [100 x double]], [100 x [100 x double]]* %17, i64 0, i64 %50
  %52 = load i32, i32* %9, align 4
  %53 = sext i32 %52 to i64
  %54 = getelementptr inbounds [100 x double], [100 x double]* %51, i64 0, i64 %53
  %55 = load double, double* %54, align 8
  %56 = fadd double %48, %55
  %57 = load i32, i32* %8, align 4
  %58 = sext i32 %57 to i64
  %59 = getelementptr inbounds [100 x double], [100 x double]* %16, i64 0, i64 %58
  store double %56, double* %59, align 8
  %60 = load i32, i32* %8, align 4
  %61 = sext i32 %60 to i64
  %62 = getelementptr inbounds [100 x i32], [100 x i32]* %15, i64 0, i64 %61
  %63 = load i32, i32* %62, align 4
  %64 = add nsw i32 %63, 1
  %65 = load i32, i32* %8, align 4
  %66 = sext i32 %65 to i64
  %67 = getelementptr inbounds [100 x i32], [100 x i32]* %15, i64 0, i64 %66
  store i32 %64, i32* %67, align 4
  br label %68

68:                                               ; preds = %37
  %69 = load i32, i32* %9, align 4
  %70 = add nsw i32 %69, 1
  store i32 %70, i32* %9, align 4
  br label %33

71:                                               ; preds = %33
  br label %72

72:                                               ; preds = %71
  %73 = load i32, i32* %8, align 4
  %74 = add nsw i32 %73, 1
  store i32 %74, i32* %8, align 4
  br label %23

75:                                               ; preds = %23
  store i32 0, i32* %8, align 4
  br label %76

76:                                               ; preds = %129, %75
  %77 = load i32, i32* %8, align 4
  %78 = load i32, i32* %6, align 4
  %79 = icmp slt i32 %77, %78
  br i1 %79, label %80, label %132

80:                                               ; preds = %76
  store double 0.000000e+00, double* %14, align 8
  %81 = load i32, i32* %8, align 4
  %82 = sext i32 %81 to i64
  %83 = getelementptr inbounds [100 x double], [100 x double]* %16, i64 0, i64 %82
  %84 = load double, double* %83, align 8
  %85 = load i32, i32* %8, align 4
  %86 = sext i32 %85 to i64
  %87 = getelementptr inbounds [100 x i32], [100 x i32]* %15, i64 0, i64 %86
  %88 = load i32, i32* %87, align 4
  %89 = sitofp i32 %88 to double
  %90 = fdiv double %84, %89
  store double %90, double* %10, align 8
  store i32 0, i32* %9, align 4
  br label %91

91:                                               ; preds = %113, %80
  %92 = load i32, i32* %9, align 4
  %93 = load i32, i32* %8, align 4
  %94 = sext i32 %93 to i64
  %95 = getelementptr inbounds [100 x i32], [100 x i32]* %19, i64 0, i64 %94
  %96 = load i32, i32* %95, align 4
  %97 = icmp slt i32 %92, %96
  br i1 %97, label %98, label %116

98:                                               ; preds = %91
  %99 = load i32, i32* %8, align 4
  %100 = sext i32 %99 to i64
  %101 = getelementptr inbounds [100 x [100 x double]], [100 x [100 x double]]* %17, i64 0, i64 %100
  %102 = load i32, i32* %9, align 4
  %103 = sext i32 %102 to i64
  %104 = getelementptr inbounds [100 x double], [100 x double]* %101, i64 0, i64 %103
  %105 = load double, double* %104, align 8
  %106 = load double, double* %10, align 8
  %107 = fsub double %105, %106
  store double %107, double* %11, align 8
  %108 = load double, double* %11, align 8
  %109 = call double @pow(double %108, double 2.000000e+00) #4
  store double %109, double* %12, align 8
  %110 = load double, double* %14, align 8
  %111 = load double, double* %12, align 8
  %112 = fadd double %110, %111
  store double %112, double* %14, align 8
  br label %113

113:                                              ; preds = %98
  %114 = load i32, i32* %9, align 4
  %115 = add nsw i32 %114, 1
  store i32 %115, i32* %9, align 4
  br label %91

116:                                              ; preds = %91
  %117 = load double, double* %14, align 8
  %118 = load i32, i32* %8, align 4
  %119 = sext i32 %118 to i64
  %120 = getelementptr inbounds [100 x i32], [100 x i32]* %15, i64 0, i64 %119
  %121 = load i32, i32* %120, align 4
  %122 = sitofp i32 %121 to double
  %123 = fdiv double %117, %122
  store double %123, double* %13, align 8
  %124 = load double, double* %13, align 8
  %125 = call double @sqrt(double %124) #4
  %126 = load i32, i32* %8, align 4
  %127 = sext i32 %126 to i64
  %128 = getelementptr inbounds [100 x double], [100 x double]* %18, i64 0, i64 %127
  store double %125, double* %128, align 8
  br label %129

129:                                              ; preds = %116
  %130 = load i32, i32* %8, align 4
  %131 = add nsw i32 %130, 1
  store i32 %131, i32* %8, align 4
  br label %76

132:                                              ; preds = %76
  store i32 0, i32* %8, align 4
  br label %133

133:                                              ; preds = %143, %132
  %134 = load i32, i32* %8, align 4
  %135 = load i32, i32* %6, align 4
  %136 = icmp slt i32 %134, %135
  br i1 %136, label %137, label %146

137:                                              ; preds = %133
  %138 = load i32, i32* %8, align 4
  %139 = sext i32 %138 to i64
  %140 = getelementptr inbounds [100 x double], [100 x double]* %18, i64 0, i64 %139
  %141 = load double, double* %140, align 8
  %142 = call i32 (i8*, ...) @printf(i8* getelementptr inbounds ([7 x i8], [7 x i8]* @.str.2, i64 0, i64 0), double %141)
  br label %143

143:                                              ; preds = %137
  %144 = load i32, i32* %8, align 4
  %145 = add nsw i32 %144, 1
  store i32 %145, i32* %8, align 4
  br label %133

146:                                              ; preds = %133
  ret i32 0
}

; Function Attrs: argmemonly nounwind willreturn
declare void @llvm.memset.p0i8.i64(i8* nocapture writeonly, i8, i64, i1 immarg) #1

declare dso_local i32 @__isoc99_scanf(i8*, ...) #2

; Function Attrs: nounwind
declare dso_local double @pow(double, double) #3

; Function Attrs: nounwind
declare dso_local double @sqrt(double) #3

declare dso_local i32 @printf(i8*, ...) #2


!llvm.module.flags = !{!0}
!llvm.ident = !{!1}

!0 = !{i32 1, !"wchar_size", i32 4}
!1 = !{!"clang version 10.0.0-4ubuntu1 "}
